; Function Attrs: mustprogress uwtable
define dso_local void @_ZNK22FunctionInvocationUser16save_return_factERKSt6vectorIPK4FactSaIS3_EE(ptr noundef nonnull align 8 dereferenceable(65) %0, ptr noundef nonnull readonly align 8 captures(none) dereferenceable(24) %1) local_unnamed_addr #4 align 2 {
  %3 = getelementptr inbounds nuw i8, ptr %1, i64 8
  %4 = load ptr, ptr %3, align 8, !tbaa !22
  %5 = load ptr, ptr %1, align 8, !tbaa !18
  %.not = icmp eq ptr %4, %5
  br i1 %.not, label %._crit_edge, label %.lr.ph

.lr.ph:                                           ; preds = %2
  %6 = getelementptr inbounds nuw i8, ptr %0, i64 56
  br label %7

7:                                                ; preds = %.lr.ph, %23
  %8 = phi ptr [ %5, %.lr.ph ], [ %26, %23 ]
  %.07 = phi i64 [ 0, %.lr.ph ], [ %24, %23 ]
  %9 = load ptr, ptr %6, align 8, !tbaa !36
  %10 = getelementptr inbounds nuw i8, ptr %9, i64 208
  %11 = load ptr, ptr %10, align 8, !tbaa !134
  %12 = getelementptr inbounds nuw ptr, ptr %8, i64 %.07
  %13 = load ptr, ptr %12, align 8, !tbaa !25
  %14 = load ptr, ptr %13, align 8, !tbaa !30
  %15 = getelementptr inbounds nuw i8, ptr %14, i64 120
  %16 = load ptr, ptr %15, align 8
  %17 = tail call noundef ptr %16(ptr noundef nonnull align 8 dereferenceable(12) %13)
  %18 = tail call noundef zeroext i1 @_ZNK8Variable5matchEPKS_(ptr noundef nonnull align 8 dereferenceable(200) %11, ptr noundef %17)
  br i1 %18, label %19, label %23

19:                                               ; preds = %7
  %20 = load ptr, ptr %1, align 8, !tbaa !18
  %21 = getelementptr inbounds nuw ptr, ptr %20, i64 %.07
  %22 = load ptr, ptr %21, align 8, !tbaa !25
  tail call void @_Z30add_return_fact_for_invocationPK22FunctionInvocationUserPK4Fact(ptr noundef nonnull %0, ptr noundef %22)
  br label %23

23:                                               ; preds = %7, %19
  %24 = add nuw i64 %.07, 1
  %25 = load ptr, ptr %3, align 8, !tbaa !22
  %26 = load ptr, ptr %1, align 8, !tbaa !18
  %27 = ptrtoint ptr %25 to i64
  %28 = ptrtoint ptr %26 to i64
  %29 = sub i64 %27, %28
  %30 = ashr exact i64 %29, 3
  %31 = icmp ult i64 %24, %30
  br i1 %31, label %7, label %._crit_edge, !llvm.loop !135

._crit_edge:                                      ; preds = %23, %2
  ret void
}